; ModuleID = '31/1802.c'
source_filename = "31/1802.c"
target datalayout = "e-m:e-p270:32:32-p271:32:32-p272:64:64-i64:64-f80:128-n8:16:32:64-S128"
target triple = "x86_64-pc-linux-gnu"

%struct.student = type { [10 x i8], [20 x i8], i8, i32, float, [10 x i8], %struct.student* }

@.str = private unnamed_addr constant [3 x i8] c"%s\00", align 1
@.str.1 = private unnamed_addr constant [14 x i8] c"%s %c %d%f %s\00", align 1
@.str.2 = private unnamed_addr constant [19 x i8] c"%s %s %c %d %g %s\0A\00", align 1

; Function Attrs: noinline nounwind uwtable
define dso_local %struct.student* @append() #0 {
  %1 = alloca %struct.student*, align 8
  %2 = alloca %struct.student*, align 8
  %3 = alloca %struct.student*, align 8
  store %struct.student* null, %struct.student** %3, align 8
  br label %4

4:                                                ; preds = %0, %37
  %5 = call noalias i8* @malloc(i64 64) #3
  %6 = bitcast i8* %5 to %struct.student*
  store %struct.student* %6, %struct.student** %2, align 8
  %7 = load %struct.student*, %struct.student** %2, align 8
  %8 = getelementptr inbounds %struct.student, %struct.student* %7, i32 0, i32 0
  %9 = getelementptr inbounds [10 x i8], [10 x i8]* %8, i64 0, i64 0
  %10 = call i32 (i8*, ...) @__isoc99_scanf(i8* getelementptr inbounds ([3 x i8], [3 x i8]* @.str, i64 0, i64 0), i8* %9)
  %11 = load %struct.student*, %struct.student** %2, align 8
  %12 = getelementptr inbounds %struct.student, %struct.student* %11, i32 0, i32 0
  %13 = getelementptr inbounds [10 x i8], [10 x i8]* %12, i64 0, i64 0
  %14 = load i8, i8* %13, align 8
  %15 = sext i8 %14 to i32
  %16 = icmp eq i32 %15, 101
  br i1 %16, label %17, label %19

17:                                               ; preds = %4
  %18 = load %struct.student*, %struct.student** %3, align 8
  store %struct.student* %18, %struct.student** %1, align 8
  br label %38

19:                                               ; preds = %4
  %20 = load %struct.student*, %struct.student** %2, align 8
  %21 = getelementptr inbounds %struct.student, %struct.student* %20, i32 0, i32 1
  %22 = getelementptr inbounds [20 x i8], [20 x i8]* %21, i64 0, i64 0
  %23 = load %struct.student*, %struct.student** %2, align 8
  %24 = getelementptr inbounds %struct.student, %struct.student* %23, i32 0, i32 2
  %25 = load %struct.student*, %struct.student** %2, align 8
  %26 = getelementptr inbounds %struct.student, %struct.student* %25, i32 0, i32 3
  %27 = load %struct.student*, %struct.student** %2, align 8
  %28 = getelementptr inbounds %struct.student, %struct.student* %27, i32 0, i32 4
  %29 = load %struct.student*, %struct.student** %2, align 8
  %30 = getelementptr inbounds %struct.student, %struct.student* %29, i32 0, i32 5
  %31 = getelementptr inbounds [10 x i8], [10 x i8]* %30, i64 0, i64 0
  %32 = call i32 (i8*, ...) @__isoc99_scanf(i8* getelementptr inbounds ([14 x i8], [14 x i8]* @.str.1, i64 0, i64 0), i8* %22, i8* %24, i32* %26, float* %28, i8* %31)
  %33 = load %struct.student*, %struct.student** %3, align 8
  %34 = load %struct.student*, %struct.student** %2, align 8
  %35 = getelementptr inbounds %struct.student, %struct.student* %34, i32 0, i32 6
  store %struct.student* %33, %struct.student** %35, align 8
  %36 = load %struct.student*, %struct.student** %2, align 8
  store %struct.student* %36, %struct.student** %3, align 8
  br label %37

37:                                               ; preds = %19
  br label %4

38:                                               ; preds = %17
  %39 = load %struct.student*, %struct.student** %1, align 8
  ret %struct.student* %39
}

; Function Attrs: nounwind
declare dso_local noalias i8* @malloc(i64) #1

declare dso_local i32 @__isoc99_scanf(i8*, ...) #2

; Function Attrs: noinline nounwind uwtable
define dso_local void @main() #0 {
  %1 = alloca %struct.student*, align 8
  %2 = call %struct.student* @append()
  store %struct.student* %2, %struct.student** %1, align 8
  br label %3

3:                                                ; preds = %28, %0
  %4 = load %struct.student*, %struct.student** %1, align 8
  %5 = icmp ne %struct.student* %4, null
  br i1 %5, label %6, label %32

6:                                                ; preds = %3
  %7 = load %struct.student*, %struct.student** %1, align 8
  %8 = getelementptr inbounds %struct.student, %struct.student* %7, i32 0, i32 0
  %9 = getelementptr inbounds [10 x i8], [10 x i8]* %8, i64 0, i64 0
  %10 = load %struct.student*, %struct.student** %1, align 8
  %11 = getelementptr inbounds %struct.student, %struct.student* %10, i32 0, i32 1
  %12 = getelementptr inbounds [20 x i8], [20 x i8]* %11, i64 0, i64 0
  %13 = load %struct.student*, %struct.student** %1, align 8
  %14 = getelementptr inbounds %struct.student, %struct.student* %13, i32 0, i32 2
  %15 = load i8, i8* %14, align 2
  %16 = sext i8 %15 to i32
  %17 = load %struct.student*, %struct.student** %1, align 8
  %18 = getelementptr inbounds %struct.student, %struct.student* %17, i32 0, i32 3
  %19 = load i32, i32* %18, align 8
  %20 = load %struct.student*, %struct.student** %1, align 8
  %21 = getelementptr inbounds %struct.student, %struct.student* %20, i32 0, i32 4
  %22 = load float, float* %21, align 4
  %23 = fpext float %22 to double
  %24 = load %struct.student*, %struct.student** %1, align 8
  %25 = getelementptr inbounds %struct.student, %struct.student* %24, i32 0, i32 5
  %26 = getelementptr inbounds [10 x i8], [10 x i8]* %25, i64 0, i64 0
  %27 = call i32 (i8*, ...) @printf(i8* getelementptr inbounds ([19 x i8], [19 x i8]* @.str.2, i64 0, i64 0), i8* %9, i8* %12, i32 %16, i32 %19, double %23, i8* %26)
  br label %28

28:                                               ; preds = %6
  %29 = load %struct.student*, %struct.student** %1, align 8
  %30 = getelementptr inbounds %struct.student, %struct.student* %29, i32 0, i32 6
  %31 = load %struct.student*, %struct.student** %30, align 8
  store %struct.student* %31, %struct.student** %1, align 8
  br label %3

32:                                               ; preds = %3
  ret void
}

declare dso_local i32 @printf(i8*, ...) #2


!llvm.module.flags = !{!0}
!llvm.ident = !{!1}

!0 = !{i32 1, !"wchar_size", i32 4}
!1 = !{!"clang version 10.0.0-4ubuntu1 "}
